; Function Attrs: nounwind uwtable
define dso_local noundef ptr @decl_new(i32 noundef %0, ptr noundef %1, i64 %2) local_unnamed_addr #0 {
  %4 = tail call ptr @vmem_alloc(ptr noundef nonnull @decl_arena, i64 noundef 136) #9
  %5 = getelementptr inbounds i8, ptr %4, i64 24
  %6 = load i64, ptr %5, align 8
  %7 = and i32 %0, 127
  %8 = zext nneg i32 %7 to i64
  %9 = and i64 %6, -128
  %10 = or disjoint i64 %9, %8
  store i64 %10, ptr %5, align 8
  %11 = getelementptr inbounds i8, ptr %4, i64 16
  store i64 %2, ptr %11, align 8
  store ptr %1, ptr %4, align 8
  ret ptr %4
}